target datalayout = "e-m:e-p270:32:32-p271:32:32-p272:64:64-i64:64-i128:128-f80:128-n8:16:32:64-S128"
target triple = "x86_64-pc-linux-gnu"

%struct.bp_dtn_time_t = type { i64, %struct.nstime_t }
%struct.nstime_t = type { i64, i32 }
%struct._address = type { i32, i32, ptr, ptr }
%struct._packet_info = type { ptr, ptr, i32, i32, %struct.nstime_t, %struct.nstime_t, %struct.nstime_t, i8, ptr, ptr, ptr, ptr, %struct._address, %struct._address, %struct._address, %struct._address, %struct._address, %struct._address, i32, ptr, i8, [3 x i8], %struct.anon, i32, i32, i32, i32, ptr, i8, ptr, ptr, i16, i16, i32, i32, i16, i32, i32, ptr, ptr, ptr, i8, i8, i16, i16, i16, i32, i16, i16, ptr, ptr, ptr, ptr, ptr, i32, i32 }
%struct.anon = type { i8, [3 x i8] }
%struct._proto_node = type { ptr, ptr, ptr, ptr, ptr, ptr, ptr }
%struct.field_info = type { ptr, i32, i32, i32, i32, i32, i32, ptr, ptr, ptr, i32, i32 }
%struct.wscbor_chunk_t = type { ptr, i32, i32, i32, ptr, ptr, i32, i8, i64 }

@.str.5 = private unnamed_addr constant [5 x i8] c": %s\00", align 1
@hf_time_dtntime = internal global i32 0, align 4
@hf_time_utctime = internal global i32 0, align 4
@ett_time = internal global i32 0, align 4
@.str.334 = private unnamed_addr constant [12 x i8] c": undefined\00", align 1

; Function Attrs: inlinehint nounwind null_pointer_is_valid sspstrong uwtable
define internal void @proto_item_set_generated(ptr noundef %0) #4 {
  %2 = alloca ptr, align 8
  store ptr %0, ptr %2, align 8
  %3 = load ptr, ptr %2, align 8
  %4 = icmp ne ptr %3, null
  br i1 %4, label %5, label %24

5:                                                ; preds = %1
  br label %6

6:                                                ; preds = %5
  %7 = load ptr, ptr %2, align 8
  %8 = getelementptr inbounds nuw %struct._proto_node, ptr %7, i32 0, i32 5
  %9 = load ptr, ptr %8, align 8
  %10 = icmp ne ptr %9, null
  br i1 %10, label %11, label %22

11:                                               ; preds = %6
  %12 = load ptr, ptr %2, align 8
  %13 = getelementptr inbounds nuw %struct._proto_node, ptr %12, i32 0, i32 5
  %14 = load ptr, ptr %13, align 8
  %15 = getelementptr inbounds nuw %struct.field_info, ptr %14, i32 0, i32 6
  %16 = load i32, ptr %15, align 4
  %17 = or i32 %16, 2
  %18 = load ptr, ptr %2, align 8
  %19 = getelementptr inbounds nuw %struct._proto_node, ptr %18, i32 0, i32 5
  %20 = load ptr, ptr %19, align 8
  %21 = getelementptr inbounds nuw %struct.field_info, ptr %20, i32 0, i32 6
  store i32 %17, ptr %21, align 4
  br label %22

22:                                               ; preds = %11, %6
  br label %23

23:                                               ; preds = %22
  br label %24

24:                                               ; preds = %23, %1
  ret void
}

; Function Attrs: nounwind null_pointer_is_valid sspstrong uwtable
define internal { i64, i32 } @dtn_to_utctime(i64 noundef %0) #0 {
  %2 = alloca %struct.nstime_t, align 8
  %3 = alloca i64, align 8
  store i64 %0, ptr %3, align 8
  %4 = load i64, ptr %3, align 8
  %5 = sdiv i64 %4, 1000
  %6 = add i64 946684800, %5
  %7 = getelementptr inbounds nuw %struct.nstime_t, ptr %2, i32 0, i32 0
  store i64 %6, ptr %7, align 8
  %8 = load i64, ptr %3, align 8
  %9 = srem i64 %8, 1000
  %10 = mul i64 1000000, %9
  %11 = trunc i64 %10 to i32
  %12 = getelementptr inbounds nuw %struct.nstime_t, ptr %2, i32 0, i32 1
  store i32 %11, ptr %12, align 8
  %13 = load { i64, i32 }, ptr %2, align 8
  ret { i64, i32 } %13
}

; Function Attrs: null_pointer_is_valid sspstrong uwtable
define internal void @dissect_dtn_time(ptr noundef %0, i32 noundef %1, ptr noundef %2, ptr noundef %3, ptr noundef %4, ptr noundef %5) #2 {
  %7 = alloca ptr, align 8
  %8 = alloca i32, align 4
  %9 = alloca ptr, align 8
  %10 = alloca ptr, align 8
  %11 = alloca ptr, align 8
  %12 = alloca ptr, align 8
  %13 = alloca ptr, align 8
  %14 = alloca ptr, align 8
  %15 = alloca i32, align 4
  %16 = alloca ptr, align 8
  %17 = alloca ptr, align 8
  %18 = alloca %struct.nstime_t, align 8
  %19 = alloca ptr, align 8
  %20 = alloca ptr, align 8
  store ptr %0, ptr %7, align 8
  store i32 %1, ptr %8, align 4
  store ptr %2, ptr %9, align 8
  store ptr %3, ptr %10, align 8
  store ptr %4, ptr %11, align 8
  store ptr %5, ptr %12, align 8
  call void @llvm.lifetime.start.p0(i64 8, ptr %13) #18
  %21 = load ptr, ptr %7, align 8
  %22 = load i32, ptr %8, align 4
  %23 = load ptr, ptr %10, align 8
  %24 = load ptr, ptr %11, align 8
  %25 = load i32, ptr %24, align 4
  %26 = call ptr @proto_tree_add_item(ptr noundef %21, i32 noundef %22, ptr noundef %23, i32 noundef %25, i32 noundef -1, i32 noundef 0)
  store ptr %26, ptr %13, align 8
  call void @llvm.lifetime.start.p0(i64 8, ptr %14) #18
  %27 = load ptr, ptr %13, align 8
  %28 = load i32, ptr @ett_time, align 4
  %29 = call ptr @proto_item_add_subtree(ptr noundef %27, i32 noundef %28)
  store ptr %29, ptr %14, align 8
  call void @llvm.lifetime.start.p0(i64 4, ptr %15) #18
  %30 = load ptr, ptr %11, align 8
  %31 = load i32, ptr %30, align 4
  store i32 %31, ptr %15, align 4
  call void @llvm.lifetime.start.p0(i64 8, ptr %16) #18
  %32 = load ptr, ptr %9, align 8
  %33 = getelementptr inbounds nuw %struct._packet_info, ptr %32, i32 0, i32 51
  %34 = load ptr, ptr %33, align 8
  %35 = load ptr, ptr %10, align 8
  %36 = load ptr, ptr %11, align 8
  %37 = call ptr @wscbor_chunk_read(ptr noundef %34, ptr noundef %35, ptr noundef %36)
  store ptr %37, ptr %16, align 8
  %38 = load ptr, ptr %16, align 8
  %39 = icmp ne ptr %38, null
  br i1 %39, label %40, label %111

40:                                               ; preds = %6
  call void @llvm.lifetime.start.p0(i64 8, ptr %17) #18
  %41 = load ptr, ptr %9, align 8
  %42 = getelementptr inbounds nuw %struct._packet_info, ptr %41, i32 0, i32 51
  %43 = load ptr, ptr %42, align 8
  %44 = load ptr, ptr %16, align 8
  %45 = call ptr @wscbor_require_uint64(ptr noundef %43, ptr noundef %44)
  store ptr %45, ptr %17, align 8
  %46 = load ptr, ptr %14, align 8
  %47 = load i32, ptr @hf_time_dtntime, align 4
  %48 = load ptr, ptr %9, align 8
  %49 = load ptr, ptr %10, align 8
  %50 = load ptr, ptr %16, align 8
  %51 = load ptr, ptr %17, align 8
  %52 = call ptr @proto_tree_add_cbor_uint64(ptr noundef %46, i32 noundef %47, ptr noundef %48, ptr noundef %49, ptr noundef %50, ptr noundef %51)
  %53 = load ptr, ptr %17, align 8
  %54 = icmp ne ptr %53, null
  br i1 %54, label %55, label %101

55:                                               ; preds = %40
  %56 = load ptr, ptr %12, align 8
  %57 = icmp ne ptr %56, null
  br i1 %57, label %58, label %63

58:                                               ; preds = %55
  %59 = load ptr, ptr %17, align 8
  %60 = load i64, ptr %59, align 8
  %61 = load ptr, ptr %12, align 8
  %62 = getelementptr inbounds nuw %struct.bp_dtn_time_t, ptr %61, i32 0, i32 0
  store i64 %60, ptr %62, align 8
  br label %63

63:                                               ; preds = %58, %55
  %64 = load ptr, ptr %17, align 8
  %65 = load i64, ptr %64, align 8
  %66 = icmp ugt i64 %65, 0
  br i1 %66, label %67, label %98

67:                                               ; preds = %63
  call void @llvm.lifetime.start.p0(i64 16, ptr %18) #18
  %68 = load ptr, ptr %17, align 8
  %69 = load i64, ptr %68, align 8
  %70 = call { i64, i32 } @dtn_to_utctime(i64 noundef %69)
  %71 = getelementptr inbounds nuw { i64, i32 }, ptr %18, i32 0, i32 0
  %72 = extractvalue { i64, i32 } %70, 0
  store i64 %72, ptr %71, align 8
  %73 = getelementptr inbounds nuw { i64, i32 }, ptr %18, i32 0, i32 1
  %74 = extractvalue { i64, i32 } %70, 1
  store i32 %74, ptr %73, align 8
  call void @llvm.lifetime.start.p0(i64 8, ptr %19) #18
  %75 = load ptr, ptr %14, align 8
  %76 = load i32, ptr @hf_time_utctime, align 4
  %77 = load ptr, ptr %10, align 8
  %78 = load ptr, ptr %16, align 8
  %79 = getelementptr inbounds nuw %struct.wscbor_chunk_t, ptr %78, i32 0, i32 1
  %80 = load i32, ptr %79, align 8
  %81 = load ptr, ptr %16, align 8
  %82 = getelementptr inbounds nuw %struct.wscbor_chunk_t, ptr %81, i32 0, i32 3
  %83 = load i32, ptr %82, align 8
  %84 = call ptr @proto_tree_add_time(ptr noundef %75, i32 noundef %76, ptr noundef %77, i32 noundef %80, i32 noundef %83, ptr noundef %18)
  store ptr %84, ptr %19, align 8
  %85 = load ptr, ptr %19, align 8
  call void @proto_item_set_generated(ptr noundef %85)
  call void @llvm.lifetime.start.p0(i64 8, ptr %20) #18
  %86 = load ptr, ptr %9, align 8
  %87 = getelementptr inbounds nuw %struct._packet_info, ptr %86, i32 0, i32 51
  %88 = load ptr, ptr %87, align 8
  %89 = call ptr @abs_time_to_str_ex(ptr noundef %88, ptr noundef %18, i32 noundef 19, i32 noundef 1)
  store ptr %89, ptr %20, align 8
  %90 = load ptr, ptr %13, align 8
  %91 = load ptr, ptr %20, align 8
  call void (ptr, ptr, ...) @proto_item_append_text(ptr noundef %90, ptr noundef @.str.5, ptr noundef %91)
  %92 = load ptr, ptr %12, align 8
  %93 = icmp ne ptr %92, null
  br i1 %93, label %94, label %97

94:                                               ; preds = %67
  %95 = load ptr, ptr %12, align 8
  %96 = getelementptr inbounds nuw %struct.bp_dtn_time_t, ptr %95, i32 0, i32 1
  call void @llvm.memcpy.p0.p0.i64(ptr align 8 %96, ptr align 8 %18, i64 16, i1 false)
  br label %97

97:                                               ; preds = %94, %67
  call void @llvm.lifetime.end.p0(i64 8, ptr %20) #18
  call void @llvm.lifetime.end.p0(i64 8, ptr %19) #18
  call void @llvm.lifetime.end.p0(i64 16, ptr %18) #18
  br label %100

98:                                               ; preds = %63
  %99 = load ptr, ptr %13, align 8
  call void (ptr, ptr, ...) @proto_item_append_text(ptr noundef %99, ptr noundef @.str.334)
  br label %100

100:                                              ; preds = %98, %97
  br label %110

101:                                              ; preds = %40
  %102 = load ptr, ptr %12, align 8
  %103 = icmp ne ptr %102, null
  br i1 %103, label %104, label %109

104:                                              ; preds = %101
  %105 = load ptr, ptr %12, align 8
  %106 = getelementptr inbounds nuw %struct.bp_dtn_time_t, ptr %105, i32 0, i32 0
  store i64 0, ptr %106, align 8
  %107 = load ptr, ptr %12, align 8
  %108 = getelementptr inbounds nuw %struct.bp_dtn_time_t, ptr %107, i32 0, i32 1
  call void @nstime_set_zero(ptr noundef %108)
  br label %109

109:                                              ; preds = %104, %101
  br label %110

110:                                              ; preds = %109, %100
  call void @llvm.lifetime.end.p0(i64 8, ptr %17) #18
  br label %111

111:                                              ; preds = %110, %6
  %112 = load ptr, ptr %13, align 8
  %113 = load ptr, ptr %11, align 8
  %114 = load i32, ptr %113, align 4
  %115 = load i32, ptr %15, align 4
  %116 = sub i32 %114, %115
  call void @proto_item_set_len(ptr noundef %112, i32 noundef %116)
  call void @llvm.lifetime.end.p0(i64 8, ptr %16) #18
  call void @llvm.lifetime.end.p0(i64 4, ptr %15) #18
  call void @llvm.lifetime.end.p0(i64 8, ptr %14) #18
  call void @llvm.lifetime.end.p0(i64 8, ptr %13) #18
  ret void
}