; Function Attrs: null_pointer_is_valid sspstrong uwtable
define internal fastcc void @dissect_dtn_time(ptr noundef %0, i32 noundef %1, ptr noundef %2, ptr noundef %3, ptr noundef %4, ptr noundef %5) unnamed_addr #2 {
  %7 = alloca %struct.nstime_t, align 8
  %8 = load i32, ptr %4, align 4
  %9 = tail call ptr @proto_tree_add_item(ptr noundef %0, i32 noundef %1, ptr noundef %3, i32 noundef %8, i32 noundef -1, i32 noundef 0)
  %10 = load i32, ptr @ett_time, align 4
  %11 = tail call ptr @proto_item_add_subtree(ptr noundef %9, i32 noundef %10)
  %12 = load i32, ptr %4, align 4
  %13 = getelementptr inbounds nuw i8, ptr %2, i64 408
  %14 = load ptr, ptr %13, align 8
  %15 = tail call ptr @wscbor_chunk_read(ptr noundef %14, ptr noundef %3, ptr noundef %4)
  %.not = icmp eq ptr %15, null
  br i1 %.not, label %54, label %16

16:                                               ; preds = %6
  %17 = load ptr, ptr %13, align 8
  %18 = tail call ptr @wscbor_require_uint64(ptr noundef %17, ptr noundef nonnull %15)
  %19 = load i32, ptr @hf_time_dtntime, align 4
  %20 = tail call ptr @proto_tree_add_cbor_uint64(ptr noundef %11, i32 noundef %19, ptr noundef %2, ptr noundef %3, ptr noundef nonnull %15, ptr noundef %18)
  %.not41 = icmp eq ptr %18, null
  %.not42 = icmp eq ptr %5, null
  br i1 %.not41, label %51, label %21

21:                                               ; preds = %16
  %.pre = load i64, ptr %18, align 8
  br i1 %.not42, label %23, label %22

22:                                               ; preds = %21
  store i64 %.pre, ptr %5, align 8
  br label %23

23:                                               ; preds = %22, %21
  %.not44 = icmp eq i64 %.pre, 0
  br i1 %.not44, label %50, label %24

24:                                               ; preds = %23
  call void @llvm.lifetime.start.p0(i64 16, ptr nonnull %7) #19
  %25 = load i64, ptr %18, align 8
  %26 = sdiv i64 %25, 1000
  %27 = add nsw i64 %26, 946684800
  %28 = srem i64 %25, 1000
  %29 = trunc nsw i64 %28 to i32
  %30 = mul nsw i32 %29, 1000000
  store i64 %27, ptr %7, align 8
  %31 = getelementptr inbounds nuw i8, ptr %7, i64 8
  store i32 %30, ptr %31, align 8
  %32 = load i32, ptr @hf_time_utctime, align 4
  %33 = getelementptr inbounds nuw i8, ptr %15, i64 8
  %34 = load i32, ptr %33, align 8
  %35 = getelementptr inbounds nuw i8, ptr %15, i64 16
  %36 = load i32, ptr %35, align 8
  %37 = call ptr @proto_tree_add_time(ptr noundef %11, i32 noundef %32, ptr noundef %3, i32 noundef %34, i32 noundef %36, ptr noundef nonnull %7)
  %.not.i = icmp eq ptr %37, null
  br i1 %.not.i, label %proto_item_set_generated.exit, label %38

38:                                               ; preds = %24
  %39 = getelementptr inbounds nuw i8, ptr %37, i64 40
  %40 = load ptr, ptr %39, align 8
  %.not5.i = icmp eq ptr %40, null
  br i1 %.not5.i, label %proto_item_set_generated.exit, label %41

41:                                               ; preds = %38
  %42 = getelementptr inbounds nuw i8, ptr %40, i64 28
  %43 = load i32, ptr %42, align 4
  %44 = or i32 %43, 2
  store i32 %44, ptr %42, align 4
  br label %proto_item_set_generated.exit

proto_item_set_generated.exit:                    ; preds = %24, %38, %41
  %45 = load ptr, ptr %13, align 8
  %46 = call ptr @abs_time_to_str_ex(ptr noundef %45, ptr noundef nonnull %7, i32 noundef 19, i32 noundef 1)
  call void (ptr, ptr, ...) @proto_item_append_text(ptr noundef %9, ptr noundef nonnull @.str.5, ptr noundef %46)
  br i1 %.not42, label %49, label %47

47:                                               ; preds = %proto_item_set_generated.exit
  %48 = getelementptr inbounds nuw i8, ptr %5, i64 8
  call void @llvm.memcpy.p0.p0.i64(ptr noundef nonnull align 8 dereferenceable(16) %48, ptr noundef nonnull align 8 dereferenceable(16) %7, i64 16, i1 false)
  br label %49

49:                                               ; preds = %47, %proto_item_set_generated.exit
  call void @llvm.lifetime.end.p0(i64 16, ptr nonnull %7) #19
  br label %54

50:                                               ; preds = %23
  tail call void (ptr, ptr, ...) @proto_item_append_text(ptr noundef %9, ptr noundef nonnull @.str.334)
  br label %54

51:                                               ; preds = %16
  br i1 %.not42, label %54, label %52

52:                                               ; preds = %51
  store i64 0, ptr %5, align 8
  %53 = getelementptr inbounds nuw i8, ptr %5, i64 8
  tail call void @nstime_set_zero(ptr noundef nonnull %53)
  br label %54

54:                                               ; preds = %50, %49, %52, %51, %6
  %55 = load i32, ptr %4, align 4
  %56 = sub i32 %55, %12
  call void @proto_item_set_len(ptr noundef %9, i32 noundef %56)
  ret void
}